target datalayout = "e-m:e-p270:32:32-p271:32:32-p272:64:64-i64:64-i128:128-f80:128-n8:16:32:64-S128"
target triple = "x86_64-pc-linux-gnu"

%struct.JsonLexContext = type { ptr, i64, i32, ptr, ptr, ptr, i8, i32, i32, i32, i32, ptr, ptr, ptr, i8, ptr, ptr }
%struct.JsonParserStack = type { i32, ptr, i64, ptr, ptr, i32, ptr }

; Function Attrs: inlinehint nounwind uwtable
define internal void @set_fname(ptr noundef %0, ptr noundef %1) #0 {
  %3 = alloca ptr, align 8
  %4 = alloca ptr, align 8
  store ptr %0, ptr %3, align 8
  store ptr %1, ptr %4, align 8
  %5 = load ptr, ptr %3, align 8
  %6 = getelementptr inbounds nuw %struct.JsonLexContext, ptr %5, i32 0, i32 9
  %7 = load i32, ptr %6, align 4
  %8 = and i32 %7, 4
  %9 = icmp ne i32 %8, 0
  br i1 %9, label %10, label %22

10:                                               ; preds = %2
  %11 = load ptr, ptr %3, align 8
  %12 = getelementptr inbounds nuw %struct.JsonLexContext, ptr %11, i32 0, i32 12
  %13 = load ptr, ptr %12, align 8
  %14 = getelementptr inbounds nuw %struct.JsonParserStack, ptr %13, i32 0, i32 3
  %15 = load ptr, ptr %14, align 8
  %16 = load ptr, ptr %3, align 8
  %17 = getelementptr inbounds nuw %struct.JsonLexContext, ptr %16, i32 0, i32 8
  %18 = load i32, ptr %17, align 8
  %19 = sext i32 %18 to i64
  %20 = getelementptr inbounds ptr, ptr %15, i64 %19
  %21 = load ptr, ptr %20, align 8
  call void @free(ptr noundef %21) #15
  br label %22

22:                                               ; preds = %10, %2
  %23 = load ptr, ptr %4, align 8
  %24 = load ptr, ptr %3, align 8
  %25 = getelementptr inbounds nuw %struct.JsonLexContext, ptr %24, i32 0, i32 12
  %26 = load ptr, ptr %25, align 8
  %27 = getelementptr inbounds nuw %struct.JsonParserStack, ptr %26, i32 0, i32 3
  %28 = load ptr, ptr %27, align 8
  %29 = load ptr, ptr %3, align 8
  %30 = getelementptr inbounds nuw %struct.JsonLexContext, ptr %29, i32 0, i32 8
  %31 = load i32, ptr %30, align 8
  %32 = sext i32 %31 to i64
  %33 = getelementptr inbounds ptr, ptr %28, i64 %32
  store ptr %23, ptr %33, align 8
  ret void
}